(dp0
S'OriginalConfig'
p1
ccopy_reg
_reconstructor
p2
(cWMCore.Configuration
Configuration
p3
c__builtin__
object
p4
Ntp5
Rp6
(dp7
S'Site'
p8
g2
(cWMCore.Configuration
ConfigSection
p9
g4
Ntp10
Rp11
(dp12
S'_internal_skipChecks'
p13
I00
sS'_internal_documentation'
p14
S''
p15
sS'_internal_settings'
p16
c__builtin__
set
p17
((lp18
S'storageSite'
p19
atp20
Rp21
sS'_internal_name'
p22
g8
sS'_internal_docstrings'
p23
(dp24
sS'_internal_children'
p25
g17
((lp26
tp27
Rp28
sg19
S'T3_US_FNALLPC'
p29
sS'_internal_parent_ref'
p30
NsbsS'_internal_sections'
p31
(lp32
S'General'
p33
aS'JobType'
p34
aS'Data'
p35
ag8
aS'User'
p36
aS'Debug'
p37
asg36
g2
(g9
g4
Ntp38
Rp39
(dp40
g13
I00
sg14
g15
sg16
g17
((lp41
tp42
Rp43
sg22
g36
sg23
(dp44
sg25
g17
((lp45
tp46
Rp47
sg30
Nsbsg37
g2
(g9
g4
Ntp48
Rp49
(dp50
g13
I00
sg14
g15
sg16
g17
((lp51
tp52
Rp53
sg22
g37
sg23
(dp54
sg25
g17
((lp55
tp56
Rp57
sg30
Nsbsg33
g2
(g9
g4
Ntp58
Rp59
(dp60
g13
I00
sg14
g15
sg16
g17
((lp61
S'transferOutputs'
p62
aS'workArea'
p63
aS'requestName'
p64
atp65
Rp66
sg22
g33
sg23
(dp67
sg62
I01
sg25
g17
((lp68
tp69
Rp70
sg64
S'testSJs_mixed_HtZt_WbZt_M1500_0000'
p71
sg30
Nsg63
S'BESTCrabPreprocess'
p72
sbsg35
g2
(g9
g4
Ntp73
Rp74
(dp75
S'inputDataset'
p76
S'/TprimeTprime_M-1500_TuneCP5_PSweights_13TeV-madgraph-pythia8/RunIIAutumn18MiniAOD-102X_upgrade2018_realistic_v15-v1/MINIAODSIM'
p77
sS'outputDatasetTag'
p78
S'testSJs_mixed_HtZt_WbZt_M1500'
p79
sg13
I00
sS'unitsPerJob'
p80
I5
sg14
g15
sg16
g17
((lp81
g76
ag80
ag78
aS'publication'
p82
aS'splitting'
p83
atp84
Rp85
sg22
g35
sg83
S'FileBased'
p86
sg23
(dp87
sg25
g17
((lp88
tp89
Rp90
sg30
Nsg82
I00
sbsg34
g2
(g9
g4
Ntp91
Rp92
(dp93
g13
I00
sg14
g15
sg16
g17
((lp94
S'psetName'
p95
aS'pluginName'
p96
aS'allowUndistributedCMSSW'
p97
atp98
Rp99
sg22
g34
sg23
(dp100
sg96
S'Analysis'
p101
sg25
g17
((lp102
tp103
Rp104
sg97
I01
sg95
S'run_producerZt.py'
p105
sg30
NsbsbsS'voGroup'
p106
g15
sS'Server'
p107
S'cmsweb.cern.ch'
p108
sS'instance'
p109
S'prod'
p110
sS'RequestName'
p111
V230525_003702:ecannaer_crab_testSJs_mixed_HtZt_WbZt_M1500_0000
p112
sS'voRole'
p113
S'NULL'
p114
sS'Port'
p115
g15
s.